ccopy_reg
_reconstructor
p0
(cgoogle.oauth2.credentials
Credentials
p1
c__builtin__
object
p2
Ntp3
Rp4
(dp5
S'_token_uri'
p6
Vhttps://oauth2.googleapis.com/token
p7
sS'_scopes'
p8
(lp9
S'https://www.googleapis.com/auth/drive'
p10
asS'_id_token'
p11
NsS'token'
p12
Vya29.GlvpBnWZXSt5R1EE-hc-IjxkQu6otxR5BZP9gp2KjT5b1ZddDcgBQVGviLgFNtovO49LT7uUue9ZjgDA2XifLGkdxuDiylMyHaXjiOgS-mmy-kb63GmKALTWbVDr
p13
sS'_refresh_token'
p14
V1/eLLc6RlijeJvKJlbFAGSmCK2PQcsvwscs6lozUphnA8
p15
sS'_client_secret'
p16
VPpeqjoOl07noHy80Ytkb_Uph
p17
sS'_client_id'
p18
V279339397298-7phajbaf19ajbecs1hm7rpgln06rajnm.apps.googleusercontent.com
p19
sS'expiry'
p20
cdatetime
datetime
p21
(S'\x07\xe3\x04\x0c\x04\x1d\x0b\x04\x15\xb2'
p22
tp23
Rp24
sb.